; Function Attrs: mustprogress uwtable
define hidden void @_ZN5boost6locale10impl_posix14create_parsingERKSt6localeSt10shared_ptrIP15__locale_structENS0_12char_facet_tE(ptr dead_on_unwind noalias writable sret(%"class.std::locale") align 8 %0, ptr noundef nonnull align 8 dereferenceable(8) %1, ptr nocapture noundef %2, i32 noundef %3) local_unnamed_addr #0 personality ptr @__gxx_personality_v0 {
  %5 = alloca %"class.std::shared_ptr", align 8
  %6 = alloca %"class.std::shared_ptr", align 8
  switch i32 %3, label %67 [
    i32 2, label %37
    i32 1, label %7
  ]

7:                                                ; preds = %4
  %8 = load ptr, ptr %2, align 8, !tbaa !3
  store ptr %8, ptr %5, align 8, !tbaa !3
  %9 = getelementptr inbounds nuw i8, ptr %5, i64 8
  %10 = getelementptr inbounds nuw i8, ptr %2, i64 8
  %11 = load ptr, ptr %10, align 8, !tbaa !9
  store ptr null, ptr %10, align 8, !tbaa !9
  store ptr %11, ptr %9, align 8, !tbaa !9
  store ptr null, ptr %2, align 8, !tbaa !3
  invoke void @_ZN5boost6locale10impl_posix19create_parsing_implIcEESt6localeRKS3_St10shared_ptrIP15__locale_structE(ptr dead_on_unwind writable sret(%"class.std::locale") align 8 %0, ptr noundef nonnull align 8 dereferenceable(8) %1, ptr noundef nonnull %5)
          to label %12 unwind label %35

12:                                               ; preds = %7
  %13 = load ptr, ptr %9, align 8, !tbaa !9
  %.not.i.i = icmp eq ptr %13, null
  br i1 %.not.i.i, label %_ZNSt12__shared_ptrIP15__locale_structLN9__gnu_cxx12_Lock_policyE2EED2Ev.exit, label %14

14:                                               ; preds = %12
  %15 = getelementptr inbounds nuw i8, ptr %13, i64 8
  %16 = load atomic i64, ptr %15 acquire, align 8
  %17 = icmp eq i64 %16, 4294967297
  %18 = trunc i64 %16 to i32
  br i1 %17, label %19, label %27

19:                                               ; preds = %14
  store i32 0, ptr %15, align 8, !tbaa !10
  %20 = getelementptr inbounds nuw i8, ptr %13, i64 12
  store i32 0, ptr %20, align 4, !tbaa !13
  %21 = load ptr, ptr %13, align 8, !tbaa !14
  %22 = getelementptr inbounds i8, ptr %21, i64 16
  %23 = load ptr, ptr %22, align 8
  call void %23(ptr noundef nonnull align 8 dereferenceable(16) %13) #23
  %24 = load ptr, ptr %13, align 8, !tbaa !14
  %25 = getelementptr inbounds i8, ptr %24, i64 24
  %26 = load ptr, ptr %25, align 8
  call void %26(ptr noundef nonnull align 8 dereferenceable(16) %13) #23
  br label %_ZNSt12__shared_ptrIP15__locale_structLN9__gnu_cxx12_Lock_policyE2EED2Ev.exit

27:                                               ; preds = %14
  %28 = load i8, ptr @__libc_single_threaded, align 1, !tbaa !16
  %.not.i.i.i = icmp eq i8 %28, 0
  br i1 %.not.i.i.i, label %31, label %29

29:                                               ; preds = %27
  %30 = add nsw i32 %18, -1
  store i32 %30, ptr %15, align 4, !tbaa !17
  br label %_ZN9__gnu_cxx27__exchange_and_add_dispatchEPii.exit.i.i.i

31:                                               ; preds = %27
  %32 = atomicrmw volatile add ptr %15, i32 -1 acq_rel, align 4
  br label %_ZN9__gnu_cxx27__exchange_and_add_dispatchEPii.exit.i.i.i

_ZN9__gnu_cxx27__exchange_and_add_dispatchEPii.exit.i.i.i: ; preds = %31, %29
  %.0.i.i.i.i = phi i32 [ %18, %29 ], [ %32, %31 ]
  %33 = icmp eq i32 %.0.i.i.i.i, 1
  br i1 %33, label %34, label %_ZNSt12__shared_ptrIP15__locale_structLN9__gnu_cxx12_Lock_policyE2EED2Ev.exit, !prof !18

34:                                               ; preds = %_ZN9__gnu_cxx27__exchange_and_add_dispatchEPii.exit.i.i.i
  call void @_ZNSt16_Sp_counted_baseILN9__gnu_cxx12_Lock_policyE2EE24_M_release_last_use_coldEv(ptr noundef nonnull align 8 dereferenceable(16) %13) #23
  br label %_ZNSt12__shared_ptrIP15__locale_structLN9__gnu_cxx12_Lock_policyE2EED2Ev.exit

35:                                               ; preds = %7
  %36 = landingpad { ptr, i32 }
          cleanup
  br label %68

37:                                               ; preds = %4
  %38 = load ptr, ptr %2, align 8, !tbaa !3
  store ptr %38, ptr %6, align 8, !tbaa !3
  %39 = getelementptr inbounds nuw i8, ptr %6, i64 8
  %40 = getelementptr inbounds nuw i8, ptr %2, i64 8
  %41 = load ptr, ptr %40, align 8, !tbaa !9
  store ptr null, ptr %40, align 8, !tbaa !9
  store ptr %41, ptr %39, align 8, !tbaa !9
  store ptr null, ptr %2, align 8, !tbaa !3
  invoke void @_ZN5boost6locale10impl_posix19create_parsing_implIwEESt6localeRKS3_St10shared_ptrIP15__locale_structE(ptr dead_on_unwind writable sret(%"class.std::locale") align 8 %0, ptr noundef nonnull align 8 dereferenceable(8) %1, ptr noundef nonnull %6)
          to label %42 unwind label %65

42:                                               ; preds = %37
  %43 = load ptr, ptr %39, align 8, !tbaa !9
  %.not.i.i7 = icmp eq ptr %43, null
  br i1 %.not.i.i7, label %_ZNSt12__shared_ptrIP15__locale_structLN9__gnu_cxx12_Lock_policyE2EED2Ev.exit, label %44

44:                                               ; preds = %42
  %45 = getelementptr inbounds nuw i8, ptr %43, i64 8
  %46 = load atomic i64, ptr %45 acquire, align 8
  %47 = icmp eq i64 %46, 4294967297
  %48 = trunc i64 %46 to i32
  br i1 %47, label %49, label %57

49:                                               ; preds = %44
  store i32 0, ptr %45, align 8, !tbaa !10
  %50 = getelementptr inbounds nuw i8, ptr %43, i64 12
  store i32 0, ptr %50, align 4, !tbaa !13
  %51 = load ptr, ptr %43, align 8, !tbaa !14
  %52 = getelementptr inbounds i8, ptr %51, i64 16
  %53 = load ptr, ptr %52, align 8
  call void %53(ptr noundef nonnull align 8 dereferenceable(16) %43) #23
  %54 = load ptr, ptr %43, align 8, !tbaa !14
  %55 = getelementptr inbounds i8, ptr %54, i64 24
  %56 = load ptr, ptr %55, align 8
  call void %56(ptr noundef nonnull align 8 dereferenceable(16) %43) #23
  br label %_ZNSt12__shared_ptrIP15__locale_structLN9__gnu_cxx12_Lock_policyE2EED2Ev.exit

57:                                               ; preds = %44
  %58 = load i8, ptr @__libc_single_threaded, align 1, !tbaa !16
  %.not.i.i.i8 = icmp eq i8 %58, 0
  br i1 %.not.i.i.i8, label %61, label %59

59:                                               ; preds = %57
  %60 = add nsw i32 %48, -1
  store i32 %60, ptr %45, align 4, !tbaa !17
  br label %_ZN9__gnu_cxx27__exchange_and_add_dispatchEPii.exit.i.i.i9

61:                                               ; preds = %57
  %62 = atomicrmw volatile add ptr %45, i32 -1 acq_rel, align 4
  br label %_ZN9__gnu_cxx27__exchange_and_add_dispatchEPii.exit.i.i.i9

_ZN9__gnu_cxx27__exchange_and_add_dispatchEPii.exit.i.i.i9: ; preds = %61, %59
  %.0.i.i.i.i10 = phi i32 [ %48, %59 ], [ %62, %61 ]
  %63 = icmp eq i32 %.0.i.i.i.i10, 1
  br i1 %63, label %64, label %_ZNSt12__shared_ptrIP15__locale_structLN9__gnu_cxx12_Lock_policyE2EED2Ev.exit, !prof !18

64:                                               ; preds = %_ZN9__gnu_cxx27__exchange_and_add_dispatchEPii.exit.i.i.i9
  call void @_ZNSt16_Sp_counted_baseILN9__gnu_cxx12_Lock_policyE2EE24_M_release_last_use_coldEv(ptr noundef nonnull align 8 dereferenceable(16) %43) #23
  br label %_ZNSt12__shared_ptrIP15__locale_structLN9__gnu_cxx12_Lock_policyE2EED2Ev.exit

65:                                               ; preds = %37
  %66 = landingpad { ptr, i32 }
          cleanup
  br label %68

67:                                               ; preds = %4
  tail call void @_ZNSt6localeC1ERKS_(ptr noundef nonnull align 8 dereferenceable(8) %0, ptr noundef nonnull align 8 dereferenceable(8) %1) #23
  br label %_ZNSt12__shared_ptrIP15__locale_structLN9__gnu_cxx12_Lock_policyE2EED2Ev.exit

_ZNSt12__shared_ptrIP15__locale_structLN9__gnu_cxx12_Lock_policyE2EED2Ev.exit: ; preds = %64, %_ZN9__gnu_cxx27__exchange_and_add_dispatchEPii.exit.i.i.i9, %49, %42, %34, %_ZN9__gnu_cxx27__exchange_and_add_dispatchEPii.exit.i.i.i, %19, %12, %67
  ret void

68:                                               ; preds = %65, %35
  %.sink = phi ptr [ %6, %65 ], [ %5, %35 ]
  %.pn = phi { ptr, i32 } [ %66, %65 ], [ %36, %35 ]
  call void @_ZNSt12__shared_ptrIP15__locale_structLN9__gnu_cxx12_Lock_policyE2EED2Ev(ptr noundef nonnull align 8 dereferenceable(16) %.sink) #23
  resume { ptr, i32 } %.pn
}